; Function Attrs: nounwind uwtable
define ptr @Gia_ManDupCofactorObj(ptr noundef readonly captures(none) %0, i32 noundef %1, i32 noundef %2) local_unnamed_addr #1 {
  %4 = getelementptr i8, ptr %0, i64 24
  %.val40 = load i32, ptr %4, align 8
  %5 = tail call ptr @Gia_ManStart(i32 noundef %.val40) #29
  %6 = load ptr, ptr %0, align 8
  %.not.i = icmp eq ptr %6, null
  br i1 %.not.i, label %Abc_UtilStrsav.exit, label %7

7:                                                ; preds = %3
  %8 = tail call i64 @strlen(ptr noundef nonnull readonly dereferenceable(1) %6) #30
  %9 = add i64 %8, 1
  %10 = tail call noalias ptr @malloc(i64 noundef %9) #27
  %11 = tail call ptr @strcpy(ptr noundef nonnull dereferenceable(1) %10, ptr noundef nonnull readonly dereferenceable(1) %6) #29
  br label %Abc_UtilStrsav.exit

Abc_UtilStrsav.exit:                              ; preds = %3, %7
  %12 = phi ptr [ %10, %7 ], [ null, %3 ]
  store ptr %12, ptr %5, align 8
  %13 = getelementptr inbounds nuw i8, ptr %0, i64 8
  %14 = load ptr, ptr %13, align 8
  %.not.i45 = icmp eq ptr %14, null
  br i1 %.not.i45, label %Abc_UtilStrsav.exit46, label %15

15:                                               ; preds = %Abc_UtilStrsav.exit
  %16 = tail call i64 @strlen(ptr noundef nonnull readonly dereferenceable(1) %14) #30
  %17 = add i64 %16, 1
  %18 = tail call noalias ptr @malloc(i64 noundef %17) #27
  %19 = tail call ptr @strcpy(ptr noundef nonnull dereferenceable(1) %18, ptr noundef nonnull readonly dereferenceable(1) %14) #29
  br label %Abc_UtilStrsav.exit46

Abc_UtilStrsav.exit46:                            ; preds = %Abc_UtilStrsav.exit, %15
  %20 = phi ptr [ %18, %15 ], [ null, %Abc_UtilStrsav.exit ]
  %21 = getelementptr inbounds nuw i8, ptr %5, i64 8
  store ptr %20, ptr %21, align 8
  %22 = getelementptr i8, ptr %0, i64 32
  %.val43 = load ptr, ptr %22, align 8
  %23 = getelementptr inbounds nuw i8, ptr %.val43, i64 8
  store i32 0, ptr %23, align 4
  tail call void @Gia_ManHashAlloc(ptr noundef nonnull %5) #29
  %24 = load i32, ptr %4, align 8
  %25 = icmp sgt i32 %24, 1
  br i1 %25, label %.lr.ph, label %.critedge

.lr.ph:                                           ; preds = %Abc_UtilStrsav.exit46
  %.not39 = icmp eq i32 %2, 0
  %26 = zext i1 %.not39 to i32
  %27 = zext i32 %1 to i64
  br label %28

28:                                               ; preds = %.lr.ph, %73
  %indvars.iv = phi i64 [ 1, %.lr.ph ], [ %indvars.iv.next, %73 ]
  %.052 = phi i32 [ -1, %.lr.ph ], [ %.1, %73 ]
  %.val = load ptr, ptr %22, align 8
  %29 = getelementptr inbounds nuw %struct.Gia_Obj_t_, ptr %.val, i64 %indvars.iv
  %.val41 = load i64, ptr %29, align 4
  %30 = and i64 %.val41, 2684354559
  %narrow.i.not = icmp eq i64 %30, 2684354559
  br i1 %narrow.i.not, label %31, label %33

31:                                               ; preds = %28
  %32 = tail call fastcc i32 @Gia_ManAppendCi(ptr noundef nonnull %5)
  br label %.sink.split

33:                                               ; preds = %28
  %34 = and i64 %.val41, 2147483648
  %.not.i47 = icmp eq i64 %34, 0
  %35 = and i64 %.val41, 536870911
  %36 = icmp ne i64 %35, 536870911
  %narrow.i48 = and i1 %.not.i47, %36
  br i1 %narrow.i48, label %37, label %55

37:                                               ; preds = %33
  %38 = sub nsw i64 0, %35
  %39 = getelementptr inbounds %struct.Gia_Obj_t_, ptr %29, i64 %38, i32 1
  %40 = load i32, ptr %39, align 4
  %41 = trunc i64 %.val41 to i32
  %42 = lshr i32 %41, 29
  %43 = and i32 %42, 1
  %44 = xor i32 %40, %43
  %45 = lshr i64 %.val41, 32
  %46 = and i64 %45, 536870911
  %47 = sub nsw i64 0, %46
  %48 = getelementptr inbounds %struct.Gia_Obj_t_, ptr %29, i64 %47, i32 1
  %49 = load i32, ptr %48, align 4
  %50 = lshr i64 %.val41, 61
  %51 = trunc nuw nsw i64 %50 to i32
  %52 = and i32 %51, 1
  %53 = xor i32 %49, %52
  %54 = tail call i32 @Gia_ManHashAnd(ptr noundef nonnull %5, i32 noundef %44, i32 noundef %53) #29
  br label %.sink.split

55:                                               ; preds = %33
  %.not.i49 = icmp ne i64 %34, 0
  %narrow.i50 = and i1 %.not.i49, %36
  br i1 %narrow.i50, label %56, label %67

56:                                               ; preds = %55
  %57 = sub nsw i64 0, %35
  %58 = getelementptr inbounds %struct.Gia_Obj_t_, ptr %29, i64 %57, i32 1
  %59 = load i32, ptr %58, align 4
  %60 = trunc i64 %.val41 to i32
  %61 = lshr i32 %60, 29
  %62 = and i32 %61, 1
  %63 = xor i32 %59, %62
  %64 = tail call i32 @Gia_ManHashAnd(ptr noundef nonnull %5, i32 noundef %63, i32 noundef %.052) #29
  %65 = tail call fastcc i32 @Gia_ManAppendCo(ptr noundef nonnull %5, i32 noundef %64)
  br label %.sink.split

.sink.split:                                      ; preds = %31, %56, %37
  %.sink = phi i32 [ %54, %37 ], [ %65, %56 ], [ %32, %31 ]
  %66 = getelementptr inbounds nuw i8, ptr %29, i64 8
  store i32 %.sink, ptr %66, align 4
  br label %67

67:                                               ; preds = %.sink.split, %55
  %68 = icmp eq i64 %indvars.iv, %27
  br i1 %68, label %69, label %73

69:                                               ; preds = %67
  %70 = getelementptr inbounds nuw i8, ptr %29, i64 8
  %71 = load i32, ptr %70, align 4
  %72 = xor i32 %71, %26
  store i32 %2, ptr %70, align 4
  br label %73

73:                                               ; preds = %67, %69
  %.1 = phi i32 [ %72, %69 ], [ %.052, %67 ]
  %indvars.iv.next = add nuw nsw i64 %indvars.iv, 1
  %74 = load i32, ptr %4, align 8
  %75 = sext i32 %74 to i64
  %76 = icmp slt i64 %indvars.iv.next, %75
  br i1 %76, label %28, label %.critedge, !llvm.loop !163

.critedge:                                        ; preds = %73, %Abc_UtilStrsav.exit46
  %77 = tail call ptr @Gia_ManCleanup(ptr noundef nonnull %5) #29
  tail call void @Gia_ManStop(ptr noundef nonnull %5) #29
  ret ptr %77
}